target datalayout = "e-m:e-p270:32:32-p271:32:32-p272:64:64-i64:64-i128:128-f80:128-n8:16:32:64-S128"
target triple = "x86_64-pc-linux-gnu"

%"class.icu_77::UnicodeString" = type { %"class.icu_77::Replaceable", %"union.icu_77::UnicodeString::StackBufferOrFields" }
%"class.icu_77::Replaceable" = type { %"class.icu_77::UObject" }
%"class.icu_77::UObject" = type { ptr }
%"union.icu_77::UnicodeString::StackBufferOrFields" = type { %struct.anon.0, [32 x i8] }
%struct.anon.0 = type { i16, i32, i32, ptr }
%"class.icu_77::NFRuleSet" = type <{ [8 x i8], %"class.icu_77::UnicodeString", %"class.icu_77::NFRuleList", [6 x ptr], ptr, %"class.icu_77::NFRuleList", i8, i8, i8, [5 x i8] }>
%"class.icu_77::NFRuleList" = type { ptr, i32, i32 }

; Function Attrs: mustprogress nounwind uwtable
define linkonce_odr noundef signext i8 @_ZNK6icu_779NFRuleSet17isFractionRuleSetEv(ptr noundef nonnull align 8 dereferenceable(163) %0) #6 comdat align 2 {
  %2 = alloca ptr, align 8
  store ptr %0, ptr %2, align 8, !tbaa !3
  %3 = load ptr, ptr %2, align 8
  %4 = getelementptr inbounds nuw %"class.icu_77::NFRuleSet", ptr %3, i32 0, i32 6
  %5 = load i8, ptr %4, align 8, !tbaa !23
  ret i8 %5
}

; Function Attrs: mustprogress uwtable
define noundef ptr @_ZNK6icu_779NFRuleSet14findDoubleRuleEd(ptr noundef nonnull align 8 dereferenceable(163) %0, double noundef %1) #0 align 2 {
  %3 = alloca ptr, align 8
  %4 = alloca ptr, align 8
  %5 = alloca double, align 8
  %6 = alloca ptr, align 8
  %7 = alloca ptr, align 8
  %8 = alloca i64, align 8
  store ptr %0, ptr %4, align 8, !tbaa !3
  store double %1, ptr %5, align 8, !tbaa !75
  %9 = load ptr, ptr %4, align 8
  %10 = call noundef signext i8 @_ZNK6icu_779NFRuleSet17isFractionRuleSetEv(ptr noundef nonnull align 8 dereferenceable(163) %9)
  %11 = icmp ne i8 %10, 0
  br i1 %11, label %12, label %15

12:                                               ; preds = %2
  %13 = load double, ptr %5, align 8, !tbaa !75
  %14 = call noundef ptr @_ZNK6icu_779NFRuleSet23findFractionRuleSetRuleEd(ptr noundef nonnull align 8 dereferenceable(163) %9, double noundef %13)
  store ptr %14, ptr %3, align 8
  br label %106

15:                                               ; preds = %2
  %16 = load double, ptr %5, align 8, !tbaa !75
  %17 = call signext i8 @uprv_isNaN_77(double noundef %16)
  %18 = icmp ne i8 %17, 0
  br i1 %18, label %19, label %31

19:                                               ; preds = %15
  call void @llvm.lifetime.start.p0(i64 8, ptr %6) #12
  %20 = getelementptr inbounds nuw %"class.icu_77::NFRuleSet", ptr %9, i32 0, i32 3
  %21 = getelementptr inbounds nuw [6 x ptr], ptr %20, i64 0, i64 5
  %22 = load ptr, ptr %21, align 8, !tbaa !26
  store ptr %22, ptr %6, align 8, !tbaa !26
  %23 = load ptr, ptr %6, align 8, !tbaa !26
  %24 = icmp ne ptr %23, null
  br i1 %24, label %29, label %25

25:                                               ; preds = %19
  %26 = getelementptr inbounds nuw %"class.icu_77::NFRuleSet", ptr %9, i32 0, i32 4
  %27 = load ptr, ptr %26, align 8, !tbaa !15
  %28 = call noundef ptr @_ZNK6icu_7721RuleBasedNumberFormat17getDefaultNaNRuleEv(ptr noundef nonnull align 8 dereferenceable(456) %27)
  store ptr %28, ptr %6, align 8, !tbaa !26
  br label %29

29:                                               ; preds = %25, %19
  %30 = load ptr, ptr %6, align 8, !tbaa !26
  store ptr %30, ptr %3, align 8
  call void @llvm.lifetime.end.p0(i64 8, ptr %6) #12
  br label %106

31:                                               ; preds = %15
  %32 = load double, ptr %5, align 8, !tbaa !75
  %33 = fcmp olt double %32, 0.000000e+00
  br i1 %33, label %34, label %47

34:                                               ; preds = %31
  %35 = getelementptr inbounds nuw %"class.icu_77::NFRuleSet", ptr %9, i32 0, i32 3
  %36 = getelementptr inbounds nuw [6 x ptr], ptr %35, i64 0, i64 0
  %37 = load ptr, ptr %36, align 8, !tbaa !26
  %38 = icmp ne ptr %37, null
  br i1 %38, label %39, label %43

39:                                               ; preds = %34
  %40 = getelementptr inbounds nuw %"class.icu_77::NFRuleSet", ptr %9, i32 0, i32 3
  %41 = getelementptr inbounds nuw [6 x ptr], ptr %40, i64 0, i64 0
  %42 = load ptr, ptr %41, align 8, !tbaa !26
  store ptr %42, ptr %3, align 8
  br label %106

43:                                               ; preds = %34
  %44 = load double, ptr %5, align 8, !tbaa !75
  %45 = fneg double %44
  store double %45, ptr %5, align 8, !tbaa !75
  br label %46

46:                                               ; preds = %43
  br label %47

47:                                               ; preds = %46, %31
  %48 = load double, ptr %5, align 8, !tbaa !75
  %49 = call signext i8 @uprv_isInfinite_77(double noundef %48)
  %50 = icmp ne i8 %49, 0
  br i1 %50, label %51, label %63

51:                                               ; preds = %47
  call void @llvm.lifetime.start.p0(i64 8, ptr %7) #12
  %52 = getelementptr inbounds nuw %"class.icu_77::NFRuleSet", ptr %9, i32 0, i32 3
  %53 = getelementptr inbounds nuw [6 x ptr], ptr %52, i64 0, i64 4
  %54 = load ptr, ptr %53, align 8, !tbaa !26
  store ptr %54, ptr %7, align 8, !tbaa !26
  %55 = load ptr, ptr %7, align 8, !tbaa !26
  %56 = icmp ne ptr %55, null
  br i1 %56, label %61, label %57

57:                                               ; preds = %51
  %58 = getelementptr inbounds nuw %"class.icu_77::NFRuleSet", ptr %9, i32 0, i32 4
  %59 = load ptr, ptr %58, align 8, !tbaa !15
  %60 = call noundef ptr @_ZNK6icu_7721RuleBasedNumberFormat22getDefaultInfinityRuleEv(ptr noundef nonnull align 8 dereferenceable(456) %59)
  store ptr %60, ptr %7, align 8, !tbaa !26
  br label %61

61:                                               ; preds = %57, %51
  %62 = load ptr, ptr %7, align 8, !tbaa !26
  store ptr %62, ptr %3, align 8
  call void @llvm.lifetime.end.p0(i64 8, ptr %7) #12
  br label %106

63:                                               ; preds = %47
  %64 = load double, ptr %5, align 8, !tbaa !75
  %65 = load double, ptr %5, align 8, !tbaa !75
  %66 = call double @uprv_floor_77(double noundef %65)
  %67 = fcmp une double %64, %66
  br i1 %67, label %68, label %91

68:                                               ; preds = %63
  %69 = load double, ptr %5, align 8, !tbaa !75
  %70 = fcmp olt double %69, 1.000000e+00
  br i1 %70, label %71, label %80

71:                                               ; preds = %68
  %72 = getelementptr inbounds nuw %"class.icu_77::NFRuleSet", ptr %9, i32 0, i32 3
  %73 = getelementptr inbounds nuw [6 x ptr], ptr %72, i64 0, i64 2
  %74 = load ptr, ptr %73, align 8, !tbaa !26
  %75 = icmp ne ptr %74, null
  br i1 %75, label %76, label %80

76:                                               ; preds = %71
  %77 = getelementptr inbounds nuw %"class.icu_77::NFRuleSet", ptr %9, i32 0, i32 3
  %78 = getelementptr inbounds nuw [6 x ptr], ptr %77, i64 0, i64 2
  %79 = load ptr, ptr %78, align 8, !tbaa !26
  store ptr %79, ptr %3, align 8
  br label %106

80:                                               ; preds = %71, %68
  %81 = getelementptr inbounds nuw %"class.icu_77::NFRuleSet", ptr %9, i32 0, i32 3
  %82 = getelementptr inbounds nuw [6 x ptr], ptr %81, i64 0, i64 1
  %83 = load ptr, ptr %82, align 8, !tbaa !26
  %84 = icmp ne ptr %83, null
  br i1 %84, label %85, label %89

85:                                               ; preds = %80
  %86 = getelementptr inbounds nuw %"class.icu_77::NFRuleSet", ptr %9, i32 0, i32 3
  %87 = getelementptr inbounds nuw [6 x ptr], ptr %86, i64 0, i64 1
  %88 = load ptr, ptr %87, align 8, !tbaa !26
  store ptr %88, ptr %3, align 8
  br label %106

89:                                               ; preds = %80
  br label %90

90:                                               ; preds = %89
  br label %91

91:                                               ; preds = %90, %63
  %92 = getelementptr inbounds nuw %"class.icu_77::NFRuleSet", ptr %9, i32 0, i32 3
  %93 = getelementptr inbounds nuw [6 x ptr], ptr %92, i64 0, i64 3
  %94 = load ptr, ptr %93, align 8, !tbaa !26
  %95 = icmp ne ptr %94, null
  br i1 %95, label %96, label %100

96:                                               ; preds = %91
  %97 = getelementptr inbounds nuw %"class.icu_77::NFRuleSet", ptr %9, i32 0, i32 3
  %98 = getelementptr inbounds nuw [6 x ptr], ptr %97, i64 0, i64 3
  %99 = load ptr, ptr %98, align 8, !tbaa !26
  store ptr %99, ptr %3, align 8
  br label %106

100:                                              ; preds = %91
  call void @llvm.lifetime.start.p0(i64 8, ptr %8) #12
  %101 = load double, ptr %5, align 8, !tbaa !75
  %102 = fadd double %101, 5.000000e-01
  %103 = call noundef i64 @_ZN6icu_7717util64_fromDoubleEd(double noundef %102)
  store i64 %103, ptr %8, align 8, !tbaa !52
  %104 = load i64, ptr %8, align 8, !tbaa !52
  %105 = call noundef ptr @_ZNK6icu_779NFRuleSet14findNormalRuleEl(ptr noundef nonnull align 8 dereferenceable(163) %9, i64 noundef %104)
  store ptr %105, ptr %3, align 8
  call void @llvm.lifetime.end.p0(i64 8, ptr %8) #12
  br label %106

106:                                              ; preds = %100, %96, %85, %76, %61, %39, %29, %12
  %107 = load ptr, ptr %3, align 8
  ret ptr %107
}