; Function Attrs: mustprogress uwtable
define noundef ptr @_ZNK6icu_779NFRuleSet14findDoubleRuleEd(ptr noundef nonnull readonly align 8 captures(none) dereferenceable(163) %0, double noundef %1) local_unnamed_addr #0 align 2 {
  %3 = getelementptr inbounds nuw i8, ptr %0, i64 160
  %4 = load i8, ptr %3, align 8, !tbaa !22
  %.not = icmp eq i8 %4, 0
  br i1 %.not, label %7, label %5

5:                                                ; preds = %2
  %6 = tail call noundef ptr @_ZNK6icu_779NFRuleSet23findFractionRuleSetRuleEd(ptr noundef nonnull align 8 dereferenceable(163) %0, double noundef %1)
  br label %49

7:                                                ; preds = %2
  %8 = tail call signext i8 @uprv_isNaN_77(double noundef %1)
  %.not25 = icmp eq i8 %8, 0
  br i1 %.not25, label %16, label %9

9:                                                ; preds = %7
  %10 = getelementptr inbounds nuw i8, ptr %0, i64 128
  %11 = load ptr, ptr %10, align 8, !tbaa !25
  %.not32 = icmp eq ptr %11, null
  br i1 %.not32, label %12, label %49

12:                                               ; preds = %9
  %13 = getelementptr inbounds nuw i8, ptr %0, i64 136
  %14 = load ptr, ptr %13, align 8, !tbaa !8
  %15 = tail call noundef ptr @_ZNK6icu_7721RuleBasedNumberFormat17getDefaultNaNRuleEv(ptr noundef nonnull align 8 dereferenceable(456) %14)
  br label %49

16:                                               ; preds = %7
  %17 = fcmp olt double %1, 0.000000e+00
  br i1 %17, label %18, label %23

18:                                               ; preds = %16
  %19 = getelementptr inbounds nuw i8, ptr %0, i64 88
  %20 = load ptr, ptr %19, align 8, !tbaa !25
  %.not26 = icmp eq ptr %20, null
  br i1 %.not26, label %21, label %49

21:                                               ; preds = %18
  %22 = fneg double %1
  br label %23

23:                                               ; preds = %21, %16
  %.017 = phi double [ %22, %21 ], [ %1, %16 ]
  %24 = tail call signext i8 @uprv_isInfinite_77(double noundef %.017)
  %.not27 = icmp eq i8 %24, 0
  br i1 %.not27, label %32, label %25

25:                                               ; preds = %23
  %26 = getelementptr inbounds nuw i8, ptr %0, i64 120
  %27 = load ptr, ptr %26, align 8, !tbaa !25
  %.not31 = icmp eq ptr %27, null
  br i1 %.not31, label %28, label %49

28:                                               ; preds = %25
  %29 = getelementptr inbounds nuw i8, ptr %0, i64 136
  %30 = load ptr, ptr %29, align 8, !tbaa !8
  %31 = tail call noundef ptr @_ZNK6icu_7721RuleBasedNumberFormat22getDefaultInfinityRuleEv(ptr noundef nonnull align 8 dereferenceable(456) %30)
  br label %49

32:                                               ; preds = %23
  %33 = tail call double @uprv_floor_77(double noundef %.017)
  %34 = fcmp une double %.017, %33
  br i1 %34, label %35, label %42

35:                                               ; preds = %32
  %36 = fcmp uge double %.017, 1.000000e+00
  %37 = getelementptr inbounds nuw i8, ptr %0, i64 104
  %38 = load ptr, ptr %37, align 8
  %.not28 = icmp eq ptr %38, null
  %or.cond = select i1 %36, i1 true, i1 %.not28
  br i1 %or.cond, label %39, label %49

39:                                               ; preds = %35
  %40 = getelementptr inbounds nuw i8, ptr %0, i64 96
  %41 = load ptr, ptr %40, align 8, !tbaa !25
  %.not29 = icmp eq ptr %41, null
  br i1 %.not29, label %42, label %49

42:                                               ; preds = %39, %32
  %43 = getelementptr inbounds nuw i8, ptr %0, i64 112
  %44 = load ptr, ptr %43, align 8, !tbaa !25
  %.not30 = icmp eq ptr %44, null
  br i1 %.not30, label %45, label %49

45:                                               ; preds = %42
  %46 = fadd double %.017, 5.000000e-01
  %47 = tail call noundef i64 @_ZN6icu_7717util64_fromDoubleEd(double noundef %46)
  %48 = tail call noundef ptr @_ZNK6icu_779NFRuleSet14findNormalRuleEl(ptr noundef nonnull align 8 dereferenceable(163) %0, i64 noundef %47)
  br label %49

49:                                               ; preds = %35, %42, %39, %25, %28, %18, %9, %12, %45, %5
  %.0 = phi ptr [ %6, %5 ], [ %48, %45 ], [ %11, %9 ], [ %15, %12 ], [ %20, %18 ], [ %27, %25 ], [ %31, %28 ], [ %41, %39 ], [ %44, %42 ], [ %38, %35 ]
  ret ptr %.0
}